target datalayout = "e-m:e-p270:32:32-p271:32:32-p272:64:64-i64:64-i128:128-f80:128-n8:16:32:64-S128"
target triple = "x86_64-pc-linux-gnu"

%struct.mbedtls_entropy_context = type { %struct.mbedtls_md_context_t, i32, i32, [20 x %struct.mbedtls_entropy_source_state] }
%struct.mbedtls_md_context_t = type { ptr, ptr, ptr }
%struct.mbedtls_entropy_source_state = type { ptr, ptr, i64, i64, i32 }

; Function Attrs: nounwind uwtable
define hidden void @mbedtls_entropy_free(ptr noundef %0) #0 {
  %2 = alloca ptr, align 8
  store ptr %0, ptr %2, align 8, !tbaa !3
  %3 = load ptr, ptr %2, align 8, !tbaa !3
  %4 = icmp eq ptr %3, null
  br i1 %4, label %5, label %6

5:                                                ; preds = %1
  br label %22

6:                                                ; preds = %1
  %7 = load ptr, ptr %2, align 8, !tbaa !3
  %8 = getelementptr inbounds nuw %struct.mbedtls_entropy_context, ptr %7, i32 0, i32 1
  %9 = load i32, ptr %8, align 8, !tbaa !13
  %10 = icmp eq i32 %9, -1
  br i1 %10, label %11, label %12

11:                                               ; preds = %6
  br label %22

12:                                               ; preds = %6
  %13 = load ptr, ptr %2, align 8, !tbaa !3
  %14 = getelementptr inbounds nuw %struct.mbedtls_entropy_context, ptr %13, i32 0, i32 0
  call void @mbedtls_md_free(ptr noundef %14)
  %15 = load ptr, ptr %2, align 8, !tbaa !3
  %16 = getelementptr inbounds nuw %struct.mbedtls_entropy_context, ptr %15, i32 0, i32 2
  store i32 0, ptr %16, align 4, !tbaa !8
  %17 = load ptr, ptr %2, align 8, !tbaa !3
  %18 = getelementptr inbounds nuw %struct.mbedtls_entropy_context, ptr %17, i32 0, i32 3
  %19 = getelementptr inbounds [20 x %struct.mbedtls_entropy_source_state], ptr %18, i64 0, i64 0
  call void @mbedtls_platform_zeroize(ptr noundef %19, i64 noundef 800)
  %20 = load ptr, ptr %2, align 8, !tbaa !3
  %21 = getelementptr inbounds nuw %struct.mbedtls_entropy_context, ptr %20, i32 0, i32 1
  store i32 -1, ptr %21, align 8, !tbaa !13
  br label %22

22:                                               ; preds = %12, %11, %5
  ret void
}