; Function Attrs: nounwind uwtable
define hidden void @mbedtls_entropy_free(ptr noundef %0) local_unnamed_addr #0 {
  %2 = icmp eq ptr %0, null
  br i1 %2, label %10, label %3

3:                                                ; preds = %1
  %4 = getelementptr inbounds nuw i8, ptr %0, i64 24
  %5 = load i32, ptr %4, align 8, !tbaa !3
  %6 = icmp eq i32 %5, -1
  br i1 %6, label %10, label %7

7:                                                ; preds = %3
  tail call void @mbedtls_md_free(ptr noundef nonnull %0) #10
  %8 = getelementptr inbounds nuw i8, ptr %0, i64 28
  store i32 0, ptr %8, align 4, !tbaa !11
  %9 = getelementptr inbounds nuw i8, ptr %0, i64 32
  tail call void @mbedtls_platform_zeroize(ptr noundef nonnull %9, i64 noundef 800) #10
  store i32 -1, ptr %4, align 8, !tbaa !3
  br label %10

10:                                               ; preds = %3, %1, %7
  ret void
}